target datalayout = "e-m:e-p270:32:32-p271:32:32-p272:64:64-i64:64-i128:128-f80:128-n8:16:32:64-S128"
target triple = "x86_64-pc-linux-gnu"

%struct.XLogReaderRoutine = type { ptr, ptr, ptr }
%struct.XLogReaderState = type { %struct.XLogReaderRoutine, i64, ptr, i64, i64, i64, i64, i64, i64, i64, i64, ptr, ptr, i64, i8, ptr, ptr, ptr, ptr, ptr, i32, %struct.WALSegmentContext, %struct.WALOpenSegment, i32, i64, i32, i64, i32, i64, i32, ptr, i32, ptr, i8, i8 }
%struct.WALSegmentContext = type { [1024 x i8], i32 }
%struct.WALOpenSegment = type { i32, i64, i32 }

@.str.94 = private unnamed_addr constant [6 x i8] c"%s/%s\00", align 1
@.str.106 = private unnamed_addr constant [29 x i8] c"could not open file \22%s\22: %m\00", align 1
@.str.107 = private unnamed_addr constant [13 x i8] c"%08X%08X%08X\00", align 1
@.str.110 = private unnamed_addr constant [29 x i8] c"could not find file \22%s\22: %m\00", align 1

; Function Attrs: nounwind uwtable
define internal i32 @open_file_in_directory(ptr noundef %0, ptr noundef %1) #0 {
  %3 = alloca ptr, align 8
  %4 = alloca ptr, align 8
  %5 = alloca i32, align 4
  %6 = alloca [1024 x i8], align 16
  store ptr %0, ptr %3, align 8
  store ptr %1, ptr %4, align 8
  call void @llvm.lifetime.start.p0(i64 4, ptr %5) #10
  store i32 -1, ptr %5, align 4
  call void @llvm.lifetime.start.p0(i64 1024, ptr %6) #10
  %7 = getelementptr inbounds [1024 x i8], ptr %6, i64 0, i64 0
  %8 = load ptr, ptr %3, align 8
  %9 = load ptr, ptr %4, align 8
  %10 = call i32 (ptr, i64, ptr, ...) @pg_snprintf(ptr noundef %7, i64 noundef 1024, ptr noundef @.str.94, ptr noundef %8, ptr noundef %9)
  %11 = getelementptr inbounds [1024 x i8], ptr %6, i64 0, i64 0
  %12 = call i32 (ptr, i32, ...) @open(ptr noundef %11, i32 noundef 0, i32 noundef 0)
  store i32 %12, ptr %5, align 4
  %13 = load i32, ptr %5, align 4
  %14 = icmp slt i32 %13, 0
  br i1 %14, label %15, label %24

15:                                               ; preds = %2
  %16 = call ptr @__errno_location() #13
  %17 = load i32, ptr %16, align 4
  %18 = icmp ne i32 %17, 2
  br i1 %18, label %19, label %24

19:                                               ; preds = %15
  br label %20

20:                                               ; preds = %19
  %21 = load ptr, ptr %4, align 8
  call void (i32, i32, ptr, ...) @pg_log_generic(i32 noundef 4, i32 noundef 0, ptr noundef @.str.106, ptr noundef %21)
  call void @exit(i32 noundef 1) #12
  unreachable

22:                                               ; No predecessors!
  br label %23

23:                                               ; preds = %22
  br label %24

24:                                               ; preds = %23, %15, %2
  %25 = load i32, ptr %5, align 4
  call void @llvm.lifetime.end.p0(i64 1024, ptr %6) #10
  call void @llvm.lifetime.end.p0(i64 4, ptr %5) #10
  ret i32 %25
}

; Function Attrs: inlinehint nounwind uwtable
define internal void @XLogFileName(ptr noundef %0, i32 noundef %1, i64 noundef %2, i32 noundef %3) #7 {
  %5 = alloca ptr, align 8
  %6 = alloca i32, align 4
  %7 = alloca i64, align 8
  %8 = alloca i32, align 4
  store ptr %0, ptr %5, align 8
  store i32 %1, ptr %6, align 4
  store i64 %2, ptr %7, align 8
  store i32 %3, ptr %8, align 4
  %9 = load ptr, ptr %5, align 8
  %10 = load i32, ptr %6, align 4
  %11 = load i64, ptr %7, align 8
  %12 = load i32, ptr %8, align 4
  %13 = sext i32 %12 to i64
  %14 = udiv i64 4294967296, %13
  %15 = udiv i64 %11, %14
  %16 = trunc i64 %15 to i32
  %17 = load i64, ptr %7, align 8
  %18 = load i32, ptr %8, align 4
  %19 = sext i32 %18 to i64
  %20 = udiv i64 4294967296, %19
  %21 = urem i64 %17, %20
  %22 = trunc i64 %21 to i32
  %23 = call i32 (ptr, i64, ptr, ...) @pg_snprintf(ptr noundef %9, i64 noundef 64, ptr noundef @.str.107, i32 noundef %10, i32 noundef %16, i32 noundef %22)
  ret void
}

; Function Attrs: nounwind uwtable
define internal void @WALDumpOpenSegment(ptr noundef %0, i64 noundef %1, ptr noundef %2) #0 {
  %4 = alloca ptr, align 8
  %5 = alloca i64, align 8
  %6 = alloca ptr, align 8
  %7 = alloca i32, align 4
  %8 = alloca [1024 x i8], align 16
  %9 = alloca i32, align 4
  %10 = alloca i32, align 4
  %11 = alloca i32, align 4
  store ptr %0, ptr %4, align 8
  store i64 %1, ptr %5, align 8
  store ptr %2, ptr %6, align 8
  call void @llvm.lifetime.start.p0(i64 4, ptr %7) #10
  %12 = load ptr, ptr %6, align 8
  %13 = load i32, ptr %12, align 4
  store i32 %13, ptr %7, align 4
  call void @llvm.lifetime.start.p0(i64 1024, ptr %8) #10
  call void @llvm.lifetime.start.p0(i64 4, ptr %9) #10
  %14 = getelementptr inbounds [1024 x i8], ptr %8, i64 0, i64 0
  %15 = load i32, ptr %7, align 4
  %16 = load i64, ptr %5, align 8
  %17 = load ptr, ptr %4, align 8
  %18 = getelementptr inbounds nuw %struct.XLogReaderState, ptr %17, i32 0, i32 21
  %19 = getelementptr inbounds nuw %struct.WALSegmentContext, ptr %18, i32 0, i32 1
  %20 = load i32, ptr %19, align 4
  call void @XLogFileName(ptr noundef %14, i32 noundef %15, i64 noundef %16, i32 noundef %20)
  store i32 0, ptr %9, align 4
  br label %21

21:                                               ; preds = %50, %3
  %22 = load i32, ptr %9, align 4
  %23 = icmp slt i32 %22, 10
  br i1 %23, label %24, label %53

24:                                               ; preds = %21
  %25 = load ptr, ptr %4, align 8
  %26 = getelementptr inbounds nuw %struct.XLogReaderState, ptr %25, i32 0, i32 21
  %27 = getelementptr inbounds nuw %struct.WALSegmentContext, ptr %26, i32 0, i32 0
  %28 = getelementptr inbounds [1024 x i8], ptr %27, i64 0, i64 0
  %29 = getelementptr inbounds [1024 x i8], ptr %8, i64 0, i64 0
  %30 = call i32 @open_file_in_directory(ptr noundef %28, ptr noundef %29)
  %31 = load ptr, ptr %4, align 8
  %32 = getelementptr inbounds nuw %struct.XLogReaderState, ptr %31, i32 0, i32 22
  %33 = getelementptr inbounds nuw %struct.WALOpenSegment, ptr %32, i32 0, i32 0
  store i32 %30, ptr %33, align 8
  %34 = load ptr, ptr %4, align 8
  %35 = getelementptr inbounds nuw %struct.XLogReaderState, ptr %34, i32 0, i32 22
  %36 = getelementptr inbounds nuw %struct.WALOpenSegment, ptr %35, i32 0, i32 0
  %37 = load i32, ptr %36, align 8
  %38 = icmp sge i32 %37, 0
  br i1 %38, label %39, label %40

39:                                               ; preds = %24
  store i32 1, ptr %10, align 4
  br label %58

40:                                               ; preds = %24
  %41 = call ptr @__errno_location() #13
  %42 = load i32, ptr %41, align 4
  %43 = icmp eq i32 %42, 2
  br i1 %43, label %44, label %49

44:                                               ; preds = %40
  call void @llvm.lifetime.start.p0(i64 4, ptr %11) #10
  %45 = call ptr @__errno_location() #13
  %46 = load i32, ptr %45, align 4
  store i32 %46, ptr %11, align 4
  call void @pg_usleep(i64 noundef 500000)
  %47 = load i32, ptr %11, align 4
  %48 = call ptr @__errno_location() #13
  store i32 %47, ptr %48, align 4
  store i32 4, ptr %10, align 4
  call void @llvm.lifetime.end.p0(i64 4, ptr %11) #10
  br label %50

49:                                               ; preds = %40
  br label %53

50:                                               ; preds = %44
  %51 = load i32, ptr %9, align 4
  %52 = add i32 %51, 1
  store i32 %52, ptr %9, align 4
  br label %21, !llvm.loop !11

53:                                               ; preds = %49, %21
  br label %54

54:                                               ; preds = %53
  %55 = getelementptr inbounds [1024 x i8], ptr %8, i64 0, i64 0
  call void (i32, i32, ptr, ...) @pg_log_generic(i32 noundef 4, i32 noundef 0, ptr noundef @.str.110, ptr noundef %55)
  call void @exit(i32 noundef 1) #12
  unreachable

56:                                               ; No predecessors!
  br label %57

57:                                               ; preds = %56
  store i32 0, ptr %10, align 4
  br label %58

58:                                               ; preds = %57, %39
  call void @llvm.lifetime.end.p0(i64 4, ptr %9) #10
  call void @llvm.lifetime.end.p0(i64 1024, ptr %8) #10
  call void @llvm.lifetime.end.p0(i64 4, ptr %7) #10
  %59 = load i32, ptr %10, align 4
  switch i32 %59, label %61 [
    i32 0, label %60
    i32 1, label %60
  ]

60:                                               ; preds = %58, %58
  ret void

61:                                               ; preds = %58
  unreachable
}