; Function Attrs: nounwind uwtable
define internal void @WALDumpOpenSegment(ptr noundef %0, i64 noundef %1, ptr noundef readonly captures(none) %2) #0 {
  %4 = alloca [1024 x i8], align 16
  %5 = alloca [1024 x i8], align 16
  %6 = load i32, ptr %2, align 4
  call void @llvm.lifetime.start.p0(i64 1024, ptr nonnull %5) #16
  %7 = getelementptr inbounds nuw i8, ptr %0, i64 180
  %8 = getelementptr inbounds nuw i8, ptr %0, i64 1204
  %9 = load i32, ptr %8, align 4
  %10 = sext i32 %9 to i64
  %11 = udiv i64 4294967296, %10
  %12 = udiv i64 %1, %11
  %13 = trunc i64 %12 to i32
  %14 = urem i64 %1, %11
  %15 = trunc nuw i64 %14 to i32
  %16 = call i32 (ptr, i64, ptr, ...) @pg_snprintf(ptr noundef nonnull %5, i64 noundef 64, ptr noundef nonnull @.str.107, i32 noundef %6, i32 noundef %13, i32 noundef %15) #16
  %17 = getelementptr inbounds nuw i8, ptr %0, i64 1208
  br label %18

18:                                               ; preds = %3, %30
  %.011 = phi i32 [ 0, %3 ], [ %31, %30 ]
  call void @llvm.lifetime.start.p0(i64 1024, ptr nonnull %4) #16
  %19 = call i32 (ptr, i64, ptr, ...) @pg_snprintf(ptr noundef nonnull %4, i64 noundef 1024, ptr noundef nonnull @.str.94, ptr noundef nonnull %7, ptr noundef nonnull %5) #16
  %20 = call i32 (ptr, i32, ...) @open(ptr noundef nonnull %4, i32 noundef 0, i32 noundef 0) #16
  %21 = icmp slt i32 %20, 0
  br i1 %21, label %22, label %26

22:                                               ; preds = %18
  %23 = tail call ptr @__errno_location() #19
  %24 = load i32, ptr %23, align 4
  %.not.i = icmp eq i32 %24, 2
  br i1 %.not.i, label %27, label %25

25:                                               ; preds = %22
  call void (i32, i32, ptr, ...) @pg_log_generic(i32 noundef 4, i32 noundef 0, ptr noundef nonnull @.str.106, ptr noundef nonnull %5) #16
  call void @exit(i32 noundef 1) #20
  unreachable

26:                                               ; preds = %18
  call void @llvm.lifetime.end.p0(i64 1024, ptr nonnull %4) #16
  store i32 %20, ptr %17, align 8
  call void @llvm.lifetime.end.p0(i64 1024, ptr nonnull %5) #16
  ret void

27:                                               ; preds = %22
  call void @llvm.lifetime.end.p0(i64 1024, ptr nonnull %4) #16
  store i32 %20, ptr %17, align 8
  %28 = load i32, ptr %23, align 4
  %29 = icmp eq i32 %28, 2
  br i1 %29, label %30, label %32

30:                                               ; preds = %27
  call void @pg_usleep(i64 noundef 500000) #16
  store i32 2, ptr %23, align 4
  %31 = add nuw nsw i32 %.011, 1
  %exitcond.not = icmp eq i32 %31, 10
  br i1 %exitcond.not, label %32, label %18, !llvm.loop !12

32:                                               ; preds = %30, %27
  call void (i32, i32, ptr, ...) @pg_log_generic(i32 noundef 4, i32 noundef 0, ptr noundef nonnull @.str.110, ptr noundef nonnull %5) #16
  call void @exit(i32 noundef 1) #20
  unreachable
}